target datalayout = "e-m:e-p270:32:32-p271:32:32-p272:64:64-i64:64-i128:128-f80:128-n8:16:32:64-S128"
target triple = "x86_64-pc-linux-gnu"

@.str = private unnamed_addr constant [37 x i8] c"../openssl/test/pem_read_depr_test.c\00", align 1
@.str.1 = private unnamed_addr constant [28 x i8] c"Error parsing test options\0A\00", align 1
@.str.2 = private unnamed_addr constant [31 x i8] c"datadir = test_get_argument(0)\00", align 1
@datadir = internal global ptr null, align 8
@.str.3 = private unnamed_addr constant [24 x i8] c"Error getting data dir\0A\00", align 1
@.str.4 = private unnamed_addr constant [20 x i8] c"test_read_dh_params\00", align 1
@.str.5 = private unnamed_addr constant [25 x i8] c"test_read_dh_x942_params\00", align 1
@.str.6 = private unnamed_addr constant [21 x i8] c"test_read_dsa_params\00", align 1
@.str.7 = private unnamed_addr constant [22 x i8] c"test_read_dsa_private\00", align 1
@.str.8 = private unnamed_addr constant [21 x i8] c"test_read_dsa_public\00", align 1
@.str.9 = private unnamed_addr constant [22 x i8] c"test_read_rsa_private\00", align 1
@.str.10 = private unnamed_addr constant [21 x i8] c"test_read_rsa_public\00", align 1

; Function Attrs: nounwind uwtable
define dso_local i32 @setup_tests() #0 {
  %1 = alloca i32, align 4
  %2 = call i32 @test_skip_common_options()
  %3 = icmp ne i32 %2, 0
  br i1 %3, label %5, label %4

4:                                                ; preds = %0
  call void (ptr, i32, ptr, ...) @test_error(ptr noundef @.str, i32 noundef 194, ptr noundef @.str.1)
  store i32 0, ptr %1, align 4
  br label %11

5:                                                ; preds = %0
  %6 = call ptr @test_get_argument(i64 noundef 0)
  store ptr %6, ptr @datadir, align 8, !tbaa !4
  %7 = call i32 @test_ptr(ptr noundef @.str, i32 noundef 198, ptr noundef @.str.2, ptr noundef %6)
  %8 = icmp ne i32 %7, 0
  br i1 %8, label %10, label %9

9:                                                ; preds = %5
  call void (ptr, i32, ptr, ...) @test_error(ptr noundef @.str, i32 noundef 199, ptr noundef @.str.3)
  store i32 0, ptr %1, align 4
  br label %11

10:                                               ; preds = %5
  call void @add_test(ptr noundef @.str.4, ptr noundef @test_read_dh_params)
  call void @add_test(ptr noundef @.str.5, ptr noundef @test_read_dh_x942_params)
  call void @add_test(ptr noundef @.str.6, ptr noundef @test_read_dsa_params)
  call void @add_test(ptr noundef @.str.7, ptr noundef @test_read_dsa_private)
  call void @add_test(ptr noundef @.str.8, ptr noundef @test_read_dsa_public)
  call void @add_test(ptr noundef @.str.9, ptr noundef @test_read_rsa_private)
  call void @add_test(ptr noundef @.str.10, ptr noundef @test_read_rsa_public)
  store i32 1, ptr %1, align 4
  br label %11

11:                                               ; preds = %10, %9, %4
  %12 = load i32, ptr %1, align 4
  ret i32 %12
}