; Function Attrs: nounwind uwtable
define dso_local range(i32 0, 2) i32 @setup_tests() local_unnamed_addr #0 {
  %1 = tail call i32 @test_skip_common_options() #2
  %.not = icmp eq i32 %1, 0
  br i1 %.not, label %2, label %3

2:                                                ; preds = %0
  tail call void (ptr, i32, ptr, ...) @test_error(ptr noundef nonnull @.str, i32 noundef 194, ptr noundef nonnull @.str.1) #2
  br label %8

3:                                                ; preds = %0
  %4 = tail call ptr @test_get_argument(i64 noundef 0) #2
  store ptr %4, ptr @datadir, align 8, !tbaa !4
  %5 = tail call i32 @test_ptr(ptr noundef nonnull @.str, i32 noundef 198, ptr noundef nonnull @.str.2, ptr noundef %4) #2
  %.not1 = icmp eq i32 %5, 0
  br i1 %.not1, label %6, label %7

6:                                                ; preds = %3
  tail call void (ptr, i32, ptr, ...) @test_error(ptr noundef nonnull @.str, i32 noundef 199, ptr noundef nonnull @.str.3) #2
  br label %8

7:                                                ; preds = %3
  tail call void @add_test(ptr noundef nonnull @.str.4, ptr noundef nonnull @test_read_dh_params) #2
  tail call void @add_test(ptr noundef nonnull @.str.5, ptr noundef nonnull @test_read_dh_x942_params) #2
  tail call void @add_test(ptr noundef nonnull @.str.6, ptr noundef nonnull @test_read_dsa_params) #2
  tail call void @add_test(ptr noundef nonnull @.str.7, ptr noundef nonnull @test_read_dsa_private) #2
  tail call void @add_test(ptr noundef nonnull @.str.8, ptr noundef nonnull @test_read_dsa_public) #2
  tail call void @add_test(ptr noundef nonnull @.str.9, ptr noundef nonnull @test_read_rsa_private) #2
  tail call void @add_test(ptr noundef nonnull @.str.10, ptr noundef nonnull @test_read_rsa_public) #2
  br label %8

8:                                                ; preds = %7, %6, %2
  %.0 = phi i32 [ 1, %7 ], [ 0, %6 ], [ 0, %2 ]
  ret i32 %.0
}